; Function Attrs: mustprogress nofree norecurse nosync nounwind willreturn memory(argmem: read) uwtable
define dso_local { <2 x float>, <2 x float> } @_Z9TriNormalRK9btVector3S1_S1_(ptr noundef nonnull readonly align 4 captures(none) dereferenceable(16) %0, ptr noundef nonnull readonly align 4 captures(none) dereferenceable(16) %1, ptr noundef nonnull readonly align 4 captures(none) dereferenceable(16) %2) local_unnamed_addr #0 {
  %4 = load float, ptr %1, align 4, !tbaa !4
  %5 = load float, ptr %0, align 4, !tbaa !4
  %6 = fsub float %4, %5
  %7 = getelementptr inbounds nuw i8, ptr %1, i64 4
  %8 = load float, ptr %7, align 4, !tbaa !4
  %9 = getelementptr inbounds nuw i8, ptr %0, i64 4
  %10 = load float, ptr %9, align 4, !tbaa !4
  %11 = fsub float %8, %10
  %12 = getelementptr inbounds nuw i8, ptr %1, i64 8
  %13 = load float, ptr %12, align 4, !tbaa !4
  %14 = getelementptr inbounds nuw i8, ptr %0, i64 8
  %15 = load float, ptr %14, align 4, !tbaa !4
  %16 = fsub float %13, %15
  %17 = load float, ptr %2, align 4, !tbaa !4
  %18 = fsub float %17, %4
  %19 = getelementptr inbounds nuw i8, ptr %2, i64 4
  %20 = load float, ptr %19, align 4, !tbaa !4
  %21 = fsub float %20, %8
  %22 = getelementptr inbounds nuw i8, ptr %2, i64 8
  %23 = load float, ptr %22, align 4, !tbaa !4
  %24 = fsub float %23, %13
  %25 = fneg float %21
  %26 = fmul float %16, %25
  %27 = tail call float @llvm.fmuladd.f32(float %11, float %24, float %26)
  %28 = fneg float %24
  %29 = fmul float %6, %28
  %30 = tail call float @llvm.fmuladd.f32(float %16, float %18, float %29)
  %31 = fneg float %18
  %32 = fmul float %11, %31
  %33 = tail call float @llvm.fmuladd.f32(float %6, float %21, float %32)
  %34 = fmul float %30, %30
  %35 = tail call float @llvm.fmuladd.f32(float %27, float %27, float %34)
  %36 = tail call noundef float @llvm.fmuladd.f32(float %33, float %33, float %35)
  %37 = fcmp oeq float %36, 0.000000e+00
  br i1 %37, label %43, label %38

38:                                               ; preds = %3
  %sqrt.i = tail call noundef float @llvm.sqrt.f32(float %36)
  %39 = fdiv float 1.000000e+00, %sqrt.i
  %40 = fmul float %27, %39
  %41 = fmul float %30, %39
  %42 = fmul float %33, %39
  %.sroa.0.0.vec.insert.i11 = insertelement <2 x float> poison, float %40, i64 0
  %.sroa.0.4.vec.insert.i12 = insertelement <2 x float> %.sroa.0.0.vec.insert.i11, float %41, i64 1
  %.sroa.3.12.vec.insert.i13 = insertelement <2 x float> <float poison, float 0.000000e+00>, float %42, i64 0
  br label %43

43:                                               ; preds = %3, %38
  %.sroa.028.0 = phi <2 x float> [ %.sroa.0.4.vec.insert.i12, %38 ], [ <float 1.000000e+00, float 0.000000e+00>, %3 ]
  %.sroa.4.0 = phi <2 x float> [ %.sroa.3.12.vec.insert.i13, %38 ], [ zeroinitializer, %3 ]
  %.fca.0.insert = insertvalue { <2 x float>, <2 x float> } poison, <2 x float> %.sroa.028.0, 0
  %.fca.1.insert = insertvalue { <2 x float>, <2 x float> } %.fca.0.insert, <2 x float> %.sroa.4.0, 1
  ret { <2 x float>, <2 x float> } %.fca.1.insert
}